; ModuleID = 'source-C-CXX/35/1049.cpp'
source_filename = "source-C-CXX/35/1049.cpp"
target datalayout = "e-m:e-p270:32:32-p271:32:32-p272:64:64-i64:64-f80:128-n8:16:32:64-S128"
target triple = "x86_64-pc-linux-gnu"

%"class.std::ios_base::Init" = type { i8 }
%"class.std::basic_istream" = type { i32 (...)**, i64, %"class.std::basic_ios" }
%"class.std::basic_ios" = type { %"class.std::ios_base", %"class.std::basic_ostream"*, i8, i8, %"class.std::basic_streambuf"*, %"class.std::ctype"*, %"class.std::num_put"*, %"class.std::num_get"* }
%"class.std::ios_base" = type { i32 (...)**, i64, i64, i32, i32, i32, %"struct.std::ios_base::_Callback_list"*, %"struct.std::ios_base::_Words", [8 x %"struct.std::ios_base::_Words"], i32, %"struct.std::ios_base::_Words"*, %"class.std::locale" }
%"struct.std::ios_base::_Callback_list" = type { %"struct.std::ios_base::_Callback_list"*, void (i32, %"class.std::ios_base"*, i32)*, i32, i32 }
%"struct.std::ios_base::_Words" = type { i8*, i64 }
%"class.std::locale" = type { %"class.std::locale::_Impl"* }
%"class.std::locale::_Impl" = type { i32, %"class.std::locale::facet"**, i64, %"class.std::locale::facet"**, i8** }
%"class.std::locale::facet" = type <{ i32 (...)**, i32, [4 x i8] }>
%"class.std::basic_ostream" = type { i32 (...)**, %"class.std::basic_ios" }
%"class.std::basic_streambuf" = type { i32 (...)**, i8*, i8*, i8*, i8*, i8*, i8*, %"class.std::locale" }
%"class.std::ctype" = type <{ %"class.std::locale::facet.base", [4 x i8], %struct.__locale_struct*, i8, [7 x i8], i32*, i32*, i16*, i8, [256 x i8], [256 x i8], i8, [6 x i8] }>
%"class.std::locale::facet.base" = type <{ i32 (...)**, i32 }>
%struct.__locale_struct = type { [13 x %struct.__locale_data*], i16*, i32*, i32*, [13 x i8*] }
%struct.__locale_data = type opaque
%"class.std::num_put" = type { %"class.std::locale::facet.base", [4 x i8] }
%"class.std::num_get" = type { %"class.std::locale::facet.base", [4 x i8] }

@_ZStL8__ioinit = internal global %"class.std::ios_base::Init" zeroinitializer, align 1
@__dso_handle = external hidden global i8
@_ZSt3cin = external global %"class.std::basic_istream", align 8
@_ZSt4cout = external global %"class.std::basic_ostream", align 8
@.str = private unnamed_addr constant [3 x i8] c"NO\00", align 1
@.str.1 = private unnamed_addr constant [4 x i8] c"YES\00", align 1
@llvm.global_ctors = appending global [1 x { i32, void ()*, i8* }] [{ i32, void ()*, i8* } { i32 65535, void ()* @_GLOBAL__sub_I_1049.cpp, i8* null }]

declare void @_ZNSt8ios_base4InitC1Ev(%"class.std::ios_base::Init"* nonnull align 1 dereferenceable(1)) unnamed_addr #0

; Function Attrs: nounwind
declare void @_ZNSt8ios_base4InitD1Ev(%"class.std::ios_base::Init"* nonnull align 1 dereferenceable(1)) unnamed_addr #1

; Function Attrs: nofree nounwind
declare i32 @__cxa_atexit(void (i8*)*, i8*, i8*) local_unnamed_addr #2

; Function Attrs: mustprogress norecurse sspstrong uwtable
define dso_local i32 @main() local_unnamed_addr #3 {
  %1 = alloca [100 x i8], align 16
  %2 = alloca [100 x i8], align 16
  %3 = getelementptr inbounds [100 x i8], [100 x i8]* %1, i64 0, i64 0
  call void @llvm.lifetime.start.p0i8(i64 100, i8* nonnull %3) #7
  %4 = getelementptr inbounds [100 x i8], [100 x i8]* %2, i64 0, i64 0
  call void @llvm.lifetime.start.p0i8(i64 100, i8* nonnull %4) #7
  call void @_ZSt17__istream_extractRSiPcl(%"class.std::basic_istream"* nonnull align 8 dereferenceable(16) @_ZSt3cin, i8* nonnull %3, i64 100)
  call void @_ZSt17__istream_extractRSiPcl(%"class.std::basic_istream"* nonnull align 8 dereferenceable(16) @_ZSt3cin, i8* nonnull %4, i64 100)
  %5 = call i64 @strlen(i8* noundef nonnull %3) #8
  %6 = trunc i64 %5 to i32
  %7 = call i64 @strlen(i8* noundef nonnull %4) #8
  %8 = trunc i64 %7 to i32
  %9 = icmp eq i32 %6, %8
  br i1 %9, label %10, label %16

10:                                               ; preds = %0
  %11 = icmp sgt i32 %6, 0
  br i1 %11, label %12, label %62

12:                                               ; preds = %10
  %13 = shl i64 %5, 32
  %14 = ashr exact i64 %13, 32
  %15 = and i64 %5, 4294967295
  br label %24

16:                                               ; preds = %0
  %17 = call nonnull align 8 dereferenceable(8) %"class.std::basic_ostream"* @_ZSt16__ostream_insertIcSt11char_traitsIcEERSt13basic_ostreamIT_T0_ES6_PKS3_l(%"class.std::basic_ostream"* nonnull align 8 dereferenceable(8) @_ZSt4cout, i8* nonnull getelementptr inbounds ([3 x i8], [3 x i8]* @.str, i64 0, i64 0), i64 2)
  br label %69

18:                                               ; preds = %47, %24
  %19 = add nuw nsw i64 %26, 1
  %20 = icmp eq i64 %27, %15
  br i1 %20, label %21, label %24, !llvm.loop !5

21:                                               ; preds = %18
  br i1 %11, label %22, label %62

22:                                               ; preds = %21
  %23 = and i64 %5, 4294967295
  br label %50

24:                                               ; preds = %12, %18
  %25 = phi i64 [ 0, %12 ], [ %27, %18 ]
  %26 = phi i64 [ 1, %12 ], [ %19, %18 ]
  %27 = add nuw nsw i64 %25, 1
  %28 = getelementptr inbounds [100 x i8], [100 x i8]* %1, i64 0, i64 %25
  %29 = getelementptr inbounds [100 x i8], [100 x i8]* %2, i64 0, i64 %25
  %30 = icmp slt i64 %27, %14
  br i1 %30, label %31, label %18

31:                                               ; preds = %24
  %32 = load i8, i8* %28, align 1, !tbaa !7
  br label %33

33:                                               ; preds = %31, %47
  %34 = phi i8 [ %32, %31 ], [ %41, %47 ]
  %35 = phi i64 [ %26, %31 ], [ %48, %47 ]
  %36 = getelementptr inbounds [100 x i8], [100 x i8]* %1, i64 0, i64 %35
  %37 = load i8, i8* %36, align 1, !tbaa !7
  %38 = icmp sgt i8 %37, %34
  br i1 %38, label %39, label %40

39:                                               ; preds = %33
  store i8 %34, i8* %36, align 1, !tbaa !7
  store i8 %37, i8* %28, align 1, !tbaa !7
  br label %40

40:                                               ; preds = %39, %33
  %41 = phi i8 [ %37, %39 ], [ %34, %33 ]
  %42 = getelementptr inbounds [100 x i8], [100 x i8]* %2, i64 0, i64 %35
  %43 = load i8, i8* %42, align 1, !tbaa !7
  %44 = load i8, i8* %29, align 1, !tbaa !7
  %45 = icmp sgt i8 %43, %44
  br i1 %45, label %46, label %47

46:                                               ; preds = %40
  store i8 %44, i8* %42, align 1, !tbaa !7
  store i8 %43, i8* %29, align 1, !tbaa !7
  br label %47

47:                                               ; preds = %46, %40
  %48 = add nuw nsw i64 %35, 1
  %49 = icmp eq i64 %48, %15
  br i1 %49, label %18, label %33, !llvm.loop !10

50:                                               ; preds = %22, %57
  %51 = phi i64 [ 0, %22 ], [ %58, %57 ]
  %52 = getelementptr inbounds [100 x i8], [100 x i8]* %2, i64 0, i64 %51
  %53 = load i8, i8* %52, align 1, !tbaa !7
  %54 = getelementptr inbounds [100 x i8], [100 x i8]* %1, i64 0, i64 %51
  %55 = load i8, i8* %54, align 1, !tbaa !7
  %56 = icmp eq i8 %53, %55
  br i1 %56, label %57, label %60

57:                                               ; preds = %50
  %58 = add nuw nsw i64 %51, 1
  %59 = icmp eq i64 %58, %23
  br i1 %59, label %65, label %50, !llvm.loop !11

60:                                               ; preds = %50
  %61 = trunc i64 %51 to i32
  br label %62

62:                                               ; preds = %60, %10, %21
  %63 = phi i32 [ 0, %21 ], [ 0, %10 ], [ %61, %60 ]
  %64 = icmp eq i32 %63, %6
  br i1 %64, label %65, label %67

65:                                               ; preds = %57, %62
  %66 = call nonnull align 8 dereferenceable(8) %"class.std::basic_ostream"* @_ZSt16__ostream_insertIcSt11char_traitsIcEERSt13basic_ostreamIT_T0_ES6_PKS3_l(%"class.std::basic_ostream"* nonnull align 8 dereferenceable(8) @_ZSt4cout, i8* nonnull getelementptr inbounds ([4 x i8], [4 x i8]* @.str.1, i64 0, i64 0), i64 3)
  br label %69

67:                                               ; preds = %62
  %68 = call nonnull align 8 dereferenceable(8) %"class.std::basic_ostream"* @_ZSt16__ostream_insertIcSt11char_traitsIcEERSt13basic_ostreamIT_T0_ES6_PKS3_l(%"class.std::basic_ostream"* nonnull align 8 dereferenceable(8) @_ZSt4cout, i8* nonnull getelementptr inbounds ([3 x i8], [3 x i8]* @.str, i64 0, i64 0), i64 2)
  br label %69

69:                                               ; preds = %65, %67, %16
  %70 = call i32 @_ZNSi3getEv(%"class.std::basic_istream"* nonnull align 8 dereferenceable(16) @_ZSt3cin)
  %71 = call i32 @_ZNSi3getEv(%"class.std::basic_istream"* nonnull align 8 dereferenceable(16) @_ZSt3cin)
  %72 = call i32 @_ZNSi3getEv(%"class.std::basic_istream"* nonnull align 8 dereferenceable(16) @_ZSt3cin)
  call void @llvm.lifetime.end.p0i8(i64 100, i8* nonnull %4) #7
  call void @llvm.lifetime.end.p0i8(i64 100, i8* nonnull %3) #7
  ret i32 0
}

; Function Attrs: argmemonly mustprogress nofree nosync nounwind willreturn
declare void @llvm.lifetime.start.p0i8(i64 immarg, i8* nocapture) #4

; Function Attrs: argmemonly mustprogress nofree nounwind readonly willreturn
declare i64 @strlen(i8* nocapture) local_unnamed_addr #5

; Function Attrs: argmemonly mustprogress nofree nosync nounwind willreturn
declare void @llvm.lifetime.end.p0i8(i64 immarg, i8* nocapture) #4

declare i32 @_ZNSi3getEv(%"class.std::basic_istream"* nonnull align 8 dereferenceable(16)) local_unnamed_addr #0

declare void @_ZSt17__istream_extractRSiPcl(%"class.std::basic_istream"* nonnull align 8 dereferenceable(16), i8*, i64) local_unnamed_addr #0

declare nonnull align 8 dereferenceable(8) %"class.std::basic_ostream"* @_ZSt16__ostream_insertIcSt11char_traitsIcEERSt13basic_ostreamIT_T0_ES6_PKS3_l(%"class.std::basic_ostream"* nonnull align 8 dereferenceable(8), i8*, i64) local_unnamed_addr #0

; Function Attrs: sspstrong uwtable
define internal void @_GLOBAL__sub_I_1049.cpp() #6 section ".text.startup" {
  tail call void @_ZNSt8ios_base4InitC1Ev(%"class.std::ios_base::Init"* nonnull align 1 dereferenceable(1) @_ZStL8__ioinit)
  %1 = tail call i32 @__cxa_atexit(void (i8*)* bitcast (void (%"class.std::ios_base::Init"*)* @_ZNSt8ios_base4InitD1Ev to void (i8*)*), i8* getelementptr inbounds (%"class.std::ios_base::Init", %"class.std::ios_base::Init"* @_ZStL8__ioinit, i64 0, i32 0), i8* nonnull @__dso_handle) #7
  ret void
}


!llvm.module.flags = !{!0, !1, !2, !3}
!llvm.ident = !{!4}

!0 = !{i32 1, !"wchar_size", i32 4}
!1 = !{i32 7, !"PIC Level", i32 2}
!2 = !{i32 7, !"PIE Level", i32 2}
!3 = !{i32 7, !"uwtable", i32 1}
!4 = !{!"clang version 13.0.0"}
!5 = distinct !{!5, !6}
!6 = !{!"llvm.loop.mustprogress"}
!7 = !{!8, !8, i64 0}
!8 = !{!"omnipotent char", !9, i64 0}
!9 = !{!"Simple C++ TBAA"}
!10 = distinct !{!10, !6}
!11 = distinct !{!11, !6}
